; Function Attrs: nounwind uwtable
define ptr @l_Lean_ResolveName_resolveNamespace(ptr noundef %0, ptr noundef %1, ptr noundef %2, ptr noundef %3) local_unnamed_addr #1 {
  %5 = ptrtoint ptr %3 to i64
  %6 = and i64 %5, 1
  %.not = icmp eq i64 %6, 0
  br i1 %.not, label %7, label %lean_inc.exit23

7:                                                ; preds = %4
  %.val.i = load i32, ptr %3, align 4, !tbaa !4
  %8 = icmp sgt i32 %.val.i, 0
  br i1 %8, label %9, label %11, !prof !11

9:                                                ; preds = %7
  %10 = add nuw i32 %.val.i, 1
  store i32 %10, ptr %3, align 4, !tbaa !4
  br label %lean_inc.exit23

11:                                               ; preds = %7
  %.not.i24 = icmp eq i32 %.val.i, 0
  br i1 %.not.i24, label %lean_inc.exit23, label %12

12:                                               ; preds = %11
  tail call void @lean_inc_ref_cold(ptr noundef nonnull %3) #6
  br label %lean_inc.exit23

lean_inc.exit23:                                  ; preds = %12, %11, %9, %4
  %13 = ptrtoint ptr %0 to i64
  %14 = and i64 %13, 1
  %.not33 = icmp eq i64 %14, 0
  br i1 %.not33, label %15, label %lean_inc.exit22

15:                                               ; preds = %lean_inc.exit23
  %.val.i25 = load i32, ptr %0, align 4, !tbaa !4
  %16 = icmp sgt i32 %.val.i25, 0
  br i1 %16, label %17, label %19, !prof !11

17:                                               ; preds = %15
  %18 = add nuw i32 %.val.i25, 1
  store i32 %18, ptr %0, align 4, !tbaa !4
  br label %lean_inc.exit22

19:                                               ; preds = %15
  %.not.i26 = icmp eq i32 %.val.i25, 0
  br i1 %.not.i26, label %lean_inc.exit22, label %20

20:                                               ; preds = %19
  tail call void @lean_inc_ref_cold(ptr noundef nonnull %0) #6
  br label %lean_inc.exit22

lean_inc.exit22:                                  ; preds = %20, %19, %17, %lean_inc.exit23
  %21 = tail call ptr @l_Lean_ResolveName_resolveNamespaceUsingScope_x3f(ptr noundef %0, ptr noundef %3, ptr noundef %1)
  %22 = ptrtoint ptr %21 to i64
  %23 = and i64 %22, 1
  %.not.i28 = icmp eq i64 %23, 0
  br i1 %.not.i28, label %27, label %24

24:                                               ; preds = %lean_inc.exit22
  %25 = lshr i64 %22, 1
  %26 = trunc i64 %25 to i32
  br label %lean_obj_tag.exit

27:                                               ; preds = %lean_inc.exit22
  %28 = getelementptr i8, ptr %21, i64 4
  %.val.i29 = load i32, ptr %28, align 4
  %29 = lshr i32 %.val.i29, 24
  br label %lean_obj_tag.exit

lean_obj_tag.exit:                                ; preds = %24, %27
  %.0.i = phi i32 [ %26, %24 ], [ %29, %27 ]
  %30 = icmp eq i32 %.0.i, 0
  br i1 %30, label %31, label %33

31:                                               ; preds = %lean_obj_tag.exit
  %32 = tail call ptr @l_Lean_ResolveName_resolveNamespaceUsingOpenDecls(ptr noundef %0, ptr noundef %3, ptr noundef %2)
  br label %58

33:                                               ; preds = %lean_obj_tag.exit
  %34 = getelementptr inbounds nuw i8, ptr %21, i64 8
  %35 = load ptr, ptr %34, align 8, !tbaa !9
  %36 = ptrtoint ptr %35 to i64
  %37 = and i64 %36, 1
  %.not34 = icmp eq i64 %37, 0
  br i1 %.not34, label %38, label %lean_inc.exit

38:                                               ; preds = %33
  %.val.i30 = load i32, ptr %35, align 4, !tbaa !4
  %39 = icmp sgt i32 %.val.i30, 0
  br i1 %39, label %40, label %42, !prof !11

40:                                               ; preds = %38
  %41 = add nuw i32 %.val.i30, 1
  store i32 %41, ptr %35, align 4, !tbaa !4
  br label %lean_inc.exit

42:                                               ; preds = %38
  %.not.i31 = icmp eq i32 %.val.i30, 0
  br i1 %.not.i31, label %lean_inc.exit, label %43

43:                                               ; preds = %42
  tail call void @lean_inc_ref_cold(ptr noundef nonnull %35) #6
  br label %lean_inc.exit

lean_inc.exit:                                    ; preds = %43, %42, %40, %33
  br i1 %.not.i28, label %44, label %lean_dec.exit

44:                                               ; preds = %lean_inc.exit
  %45 = load i32, ptr %21, align 4, !tbaa !4
  %46 = icmp sgt i32 %45, 1
  br i1 %46, label %47, label %49, !prof !11

47:                                               ; preds = %44
  %48 = add nsw i32 %45, -1
  store i32 %48, ptr %21, align 4, !tbaa !4
  br label %lean_dec.exit

49:                                               ; preds = %44
  %.not.i = icmp eq i32 %45, 0
  br i1 %.not.i, label %lean_dec.exit, label %50

50:                                               ; preds = %49
  tail call void @lean_dec_ref_cold(ptr noundef nonnull %21) #6
  br label %lean_dec.exit

lean_dec.exit:                                    ; preds = %50, %49, %47, %lean_inc.exit
  %51 = tail call ptr @l_Lean_ResolveName_resolveNamespaceUsingOpenDecls(ptr noundef %0, ptr noundef %3, ptr noundef %2)
  tail call void @lean_inc_heartbeat() #6
  %52 = tail call noalias ptr @mi_malloc_small(i64 noundef 24) #6
  %53 = icmp eq ptr %52, null
  br i1 %53, label %54, label %lean_alloc_ctor.exit

54:                                               ; preds = %lean_dec.exit
  tail call void @lean_internal_panic_out_of_memory() #7
  unreachable

lean_alloc_ctor.exit:                             ; preds = %lean_dec.exit
  %55 = getelementptr inbounds nuw i8, ptr %52, i64 4
  store i32 1, ptr %52, align 4, !tbaa !4
  store i32 16908312, ptr %55, align 4
  %56 = getelementptr inbounds nuw i8, ptr %52, i64 8
  store ptr %35, ptr %56, align 8, !tbaa !9
  %57 = getelementptr inbounds nuw i8, ptr %52, i64 16
  store ptr %51, ptr %57, align 8, !tbaa !9
  br label %58

58:                                               ; preds = %lean_alloc_ctor.exit, %31
  %.0 = phi ptr [ %32, %31 ], [ %52, %lean_alloc_ctor.exit ]
  ret ptr %.0
}